; Function Attrs: nofree norecurse nosync nounwind null_pointer_is_valid sspstrong memory(read, argmem: readwrite, inaccessiblemem: none) uwtable
define noundef ptr @ascii_strdown_inplace(ptr noundef returned captures(ret: address, provenance) %0) local_unnamed_addr #8 {
  %2 = load i8, ptr %0, align 1
  %.not10 = icmp eq i8 %2, 0
  br i1 %.not10, label %._crit_edge, label %.lr.ph

.lr.ph:                                           ; preds = %1
  %3 = load ptr, ptr @g_ascii_table, align 8
  br label %4

4:                                                ; preds = %.lr.ph, %4
  %5 = phi i8 [ %2, %.lr.ph ], [ %14, %4 ]
  %.011 = phi ptr [ %0, %.lr.ph ], [ %13, %4 ]
  %6 = zext i8 %5 to i64
  %7 = getelementptr i16, ptr %3, i64 %6
  %8 = load i16, ptr %7, align 2
  %9 = lshr i16 %8, 4
  %10 = trunc i16 %9 to i8
  %11 = and i8 %10, 32
  %12 = add i8 %11, %5
  store i8 %12, ptr %.011, align 1
  %13 = getelementptr i8, ptr %.011, i64 1
  %14 = load i8, ptr %13, align 1
  %.not = icmp eq i8 %14, 0
  br i1 %.not, label %._crit_edge, label %4, !llvm.loop !17

._crit_edge:                                      ; preds = %4, %1
  ret ptr %0
}